target datalayout = "e-m:e-p270:32:32-p271:32:32-p272:64:64-i64:64-i128:128-f80:128-n8:16:32:64-S128"
target triple = "x86_64-pc-linux-gnu"

%struct.AVComplexFloat = type { float, float }
%struct.AVTXContext = type { i32, i32, ptr, ptr, ptr, ptr, [4 x ptr], i32, [4 x ptr], ptr, i32, i64, i32, float, double, ptr }

; Function Attrs: nounwind uwtable
define internal void @ff_tx_rdft_r2c_float_c(ptr noundef %0, ptr noundef %1, ptr noundef %2, i64 noundef %3) #4 {
  %5 = alloca ptr, align 8
  %6 = alloca ptr, align 8
  %7 = alloca ptr, align 8
  %8 = alloca i64, align 8
  %9 = alloca i32, align 4
  %10 = alloca i32, align 4
  %11 = alloca ptr, align 8
  %12 = alloca ptr, align 8
  %13 = alloca ptr, align 8
  %14 = alloca ptr, align 8
  %15 = alloca [3 x %struct.AVComplexFloat], align 16
  %16 = alloca i32, align 4
  store ptr %0, ptr %5, align 8, !tbaa !17
  store ptr %1, ptr %6, align 8, !tbaa !8
  store ptr %2, ptr %7, align 8, !tbaa !8
  store i64 %3, ptr %8, align 8, !tbaa !30
  call void @llvm.lifetime.start.p0(i64 4, ptr %9) #10
  %17 = load ptr, ptr %5, align 8, !tbaa !17
  %18 = getelementptr inbounds nuw %struct.AVTXContext, ptr %17, i32 0, i32 0
  %19 = load i32, ptr %18, align 8, !tbaa !21
  %20 = ashr i32 %19, 1
  store i32 %20, ptr %9, align 4, !tbaa !4
  call void @llvm.lifetime.start.p0(i64 4, ptr %10) #10
  %21 = load ptr, ptr %5, align 8, !tbaa !17
  %22 = getelementptr inbounds nuw %struct.AVTXContext, ptr %21, i32 0, i32 0
  %23 = load i32, ptr %22, align 8, !tbaa !21
  %24 = ashr i32 %23, 2
  store i32 %24, ptr %10, align 4, !tbaa !4
  call void @llvm.lifetime.start.p0(i64 8, ptr %11) #10
  %25 = load ptr, ptr %5, align 8, !tbaa !17
  %26 = getelementptr inbounds nuw %struct.AVTXContext, ptr %25, i32 0, i32 3
  %27 = load ptr, ptr %26, align 8, !tbaa !31
  store ptr %27, ptr %11, align 8, !tbaa !39
  call void @llvm.lifetime.start.p0(i64 8, ptr %12) #10
  %28 = load ptr, ptr %11, align 8, !tbaa !39
  %29 = getelementptr inbounds float, ptr %28, i64 8
  store ptr %29, ptr %12, align 8, !tbaa !39
  call void @llvm.lifetime.start.p0(i64 8, ptr %13) #10
  %30 = load ptr, ptr %12, align 8, !tbaa !39
  %31 = load i32, ptr %10, align 4, !tbaa !4
  %32 = sext i32 %31 to i64
  %33 = getelementptr inbounds float, ptr %30, i64 %32
  store ptr %33, ptr %13, align 8, !tbaa !39
  call void @llvm.lifetime.start.p0(i64 8, ptr %14) #10
  %34 = load ptr, ptr %6, align 8, !tbaa !8
  store ptr %34, ptr %14, align 8, !tbaa !60
  call void @llvm.lifetime.start.p0(i64 24, ptr %15) #10
  %35 = load ptr, ptr %5, align 8, !tbaa !17
  %36 = getelementptr inbounds nuw %struct.AVTXContext, ptr %35, i32 0, i32 6
  %37 = getelementptr inbounds [4 x ptr], ptr %36, i64 0, i64 0
  %38 = load ptr, ptr %37, align 8, !tbaa !8
  %39 = load ptr, ptr %5, align 8, !tbaa !17
  %40 = getelementptr inbounds nuw %struct.AVTXContext, ptr %39, i32 0, i32 5
  %41 = load ptr, ptr %40, align 8, !tbaa !68
  %42 = getelementptr inbounds %struct.AVTXContext, ptr %41, i64 0
  %43 = load ptr, ptr %14, align 8, !tbaa !60
  %44 = load ptr, ptr %7, align 8, !tbaa !8
  call void %38(ptr noundef %42, ptr noundef %43, ptr noundef %44, i64 noundef 8)
  %45 = load ptr, ptr %14, align 8, !tbaa !60
  %46 = getelementptr inbounds %struct.AVComplexFloat, ptr %45, i64 0
  %47 = getelementptr inbounds nuw %struct.AVComplexFloat, ptr %46, i32 0, i32 0
  %48 = load float, ptr %47, align 4, !tbaa !32
  %49 = getelementptr inbounds [3 x %struct.AVComplexFloat], ptr %15, i64 0, i64 0
  %50 = getelementptr inbounds nuw %struct.AVComplexFloat, ptr %49, i32 0, i32 0
  store float %48, ptr %50, align 16, !tbaa !32
  %51 = getelementptr inbounds [3 x %struct.AVComplexFloat], ptr %15, i64 0, i64 0
  %52 = getelementptr inbounds nuw %struct.AVComplexFloat, ptr %51, i32 0, i32 0
  %53 = load float, ptr %52, align 16, !tbaa !32
  %54 = load ptr, ptr %14, align 8, !tbaa !60
  %55 = getelementptr inbounds %struct.AVComplexFloat, ptr %54, i64 0
  %56 = getelementptr inbounds nuw %struct.AVComplexFloat, ptr %55, i32 0, i32 1
  %57 = load float, ptr %56, align 4, !tbaa !34
  %58 = fadd nsz float %53, %57
  %59 = load ptr, ptr %14, align 8, !tbaa !60
  %60 = getelementptr inbounds %struct.AVComplexFloat, ptr %59, i64 0
  %61 = getelementptr inbounds nuw %struct.AVComplexFloat, ptr %60, i32 0, i32 0
  store float %58, ptr %61, align 4, !tbaa !32
  %62 = getelementptr inbounds [3 x %struct.AVComplexFloat], ptr %15, i64 0, i64 0
  %63 = getelementptr inbounds nuw %struct.AVComplexFloat, ptr %62, i32 0, i32 0
  %64 = load float, ptr %63, align 16, !tbaa !32
  %65 = load ptr, ptr %14, align 8, !tbaa !60
  %66 = getelementptr inbounds %struct.AVComplexFloat, ptr %65, i64 0
  %67 = getelementptr inbounds nuw %struct.AVComplexFloat, ptr %66, i32 0, i32 1
  %68 = load float, ptr %67, align 4, !tbaa !34
  %69 = fsub nsz float %64, %68
  %70 = load ptr, ptr %14, align 8, !tbaa !60
  %71 = getelementptr inbounds %struct.AVComplexFloat, ptr %70, i64 0
  %72 = getelementptr inbounds nuw %struct.AVComplexFloat, ptr %71, i32 0, i32 1
  store float %69, ptr %72, align 4, !tbaa !34
  %73 = load ptr, ptr %11, align 8, !tbaa !39
  %74 = getelementptr inbounds float, ptr %73, i64 0
  %75 = load float, ptr %74, align 4, !tbaa !36
  %76 = load ptr, ptr %14, align 8, !tbaa !60
  %77 = getelementptr inbounds %struct.AVComplexFloat, ptr %76, i64 0
  %78 = getelementptr inbounds nuw %struct.AVComplexFloat, ptr %77, i32 0, i32 0
  %79 = load float, ptr %78, align 4, !tbaa !32
  %80 = fmul nsz float %75, %79
  %81 = load ptr, ptr %14, align 8, !tbaa !60
  %82 = getelementptr inbounds %struct.AVComplexFloat, ptr %81, i64 0
  %83 = getelementptr inbounds nuw %struct.AVComplexFloat, ptr %82, i32 0, i32 0
  store float %80, ptr %83, align 4, !tbaa !32
  %84 = load ptr, ptr %11, align 8, !tbaa !39
  %85 = getelementptr inbounds float, ptr %84, i64 1
  %86 = load float, ptr %85, align 4, !tbaa !36
  %87 = load ptr, ptr %14, align 8, !tbaa !60
  %88 = getelementptr inbounds %struct.AVComplexFloat, ptr %87, i64 0
  %89 = getelementptr inbounds nuw %struct.AVComplexFloat, ptr %88, i32 0, i32 1
  %90 = load float, ptr %89, align 4, !tbaa !34
  %91 = fmul nsz float %86, %90
  %92 = load ptr, ptr %14, align 8, !tbaa !60
  %93 = getelementptr inbounds %struct.AVComplexFloat, ptr %92, i64 0
  %94 = getelementptr inbounds nuw %struct.AVComplexFloat, ptr %93, i32 0, i32 1
  store float %91, ptr %94, align 4, !tbaa !34
  %95 = load ptr, ptr %11, align 8, !tbaa !39
  %96 = getelementptr inbounds float, ptr %95, i64 2
  %97 = load float, ptr %96, align 4, !tbaa !36
  %98 = load ptr, ptr %14, align 8, !tbaa !60
  %99 = load i32, ptr %10, align 4, !tbaa !4
  %100 = sext i32 %99 to i64
  %101 = getelementptr inbounds %struct.AVComplexFloat, ptr %98, i64 %100
  %102 = getelementptr inbounds nuw %struct.AVComplexFloat, ptr %101, i32 0, i32 0
  %103 = load float, ptr %102, align 4, !tbaa !32
  %104 = fmul nsz float %97, %103
  %105 = load ptr, ptr %14, align 8, !tbaa !60
  %106 = load i32, ptr %10, align 4, !tbaa !4
  %107 = sext i32 %106 to i64
  %108 = getelementptr inbounds %struct.AVComplexFloat, ptr %105, i64 %107
  %109 = getelementptr inbounds nuw %struct.AVComplexFloat, ptr %108, i32 0, i32 0
  store float %104, ptr %109, align 4, !tbaa !32
  %110 = load ptr, ptr %11, align 8, !tbaa !39
  %111 = getelementptr inbounds float, ptr %110, i64 3
  %112 = load float, ptr %111, align 4, !tbaa !36
  %113 = load ptr, ptr %14, align 8, !tbaa !60
  %114 = load i32, ptr %10, align 4, !tbaa !4
  %115 = sext i32 %114 to i64
  %116 = getelementptr inbounds %struct.AVComplexFloat, ptr %113, i64 %115
  %117 = getelementptr inbounds nuw %struct.AVComplexFloat, ptr %116, i32 0, i32 1
  %118 = load float, ptr %117, align 4, !tbaa !34
  %119 = fmul nsz float %112, %118
  %120 = load ptr, ptr %14, align 8, !tbaa !60
  %121 = load i32, ptr %10, align 4, !tbaa !4
  %122 = sext i32 %121 to i64
  %123 = getelementptr inbounds %struct.AVComplexFloat, ptr %120, i64 %122
  %124 = getelementptr inbounds nuw %struct.AVComplexFloat, ptr %123, i32 0, i32 1
  store float %119, ptr %124, align 4, !tbaa !34
  call void @llvm.lifetime.start.p0(i64 4, ptr %16) #10
  store i32 1, ptr %16, align 4, !tbaa !4
  br label %125

125:                                              ; preds = %311, %4
  %126 = load i32, ptr %16, align 4, !tbaa !4
  %127 = load i32, ptr %10, align 4, !tbaa !4
  %128 = icmp slt i32 %126, %127
  br i1 %128, label %130, label %129

129:                                              ; preds = %125
  call void @llvm.lifetime.end.p0(i64 4, ptr %16) #10
  br label %314

130:                                              ; preds = %125
  %131 = load ptr, ptr %11, align 8, !tbaa !39
  %132 = getelementptr inbounds float, ptr %131, i64 4
  %133 = load float, ptr %132, align 4, !tbaa !36
  %134 = load ptr, ptr %14, align 8, !tbaa !60
  %135 = load i32, ptr %16, align 4, !tbaa !4
  %136 = sext i32 %135 to i64
  %137 = getelementptr inbounds %struct.AVComplexFloat, ptr %134, i64 %136
  %138 = getelementptr inbounds nuw %struct.AVComplexFloat, ptr %137, i32 0, i32 0
  %139 = load float, ptr %138, align 4, !tbaa !32
  %140 = load ptr, ptr %14, align 8, !tbaa !60
  %141 = load i32, ptr %9, align 4, !tbaa !4
  %142 = load i32, ptr %16, align 4, !tbaa !4
  %143 = sub nsw i32 %141, %142
  %144 = sext i32 %143 to i64
  %145 = getelementptr inbounds %struct.AVComplexFloat, ptr %140, i64 %144
  %146 = getelementptr inbounds nuw %struct.AVComplexFloat, ptr %145, i32 0, i32 0
  %147 = load float, ptr %146, align 4, !tbaa !32
  %148 = fadd nsz float %139, %147
  %149 = fmul nsz float %133, %148
  %150 = getelementptr inbounds [3 x %struct.AVComplexFloat], ptr %15, i64 0, i64 0
  %151 = getelementptr inbounds nuw %struct.AVComplexFloat, ptr %150, i32 0, i32 0
  store float %149, ptr %151, align 16, !tbaa !32
  %152 = load ptr, ptr %11, align 8, !tbaa !39
  %153 = getelementptr inbounds float, ptr %152, i64 5
  %154 = load float, ptr %153, align 4, !tbaa !36
  %155 = load ptr, ptr %14, align 8, !tbaa !60
  %156 = load i32, ptr %16, align 4, !tbaa !4
  %157 = sext i32 %156 to i64
  %158 = getelementptr inbounds %struct.AVComplexFloat, ptr %155, i64 %157
  %159 = getelementptr inbounds nuw %struct.AVComplexFloat, ptr %158, i32 0, i32 1
  %160 = load float, ptr %159, align 4, !tbaa !34
  %161 = load ptr, ptr %14, align 8, !tbaa !60
  %162 = load i32, ptr %9, align 4, !tbaa !4
  %163 = load i32, ptr %16, align 4, !tbaa !4
  %164 = sub nsw i32 %162, %163
  %165 = sext i32 %164 to i64
  %166 = getelementptr inbounds %struct.AVComplexFloat, ptr %161, i64 %165
  %167 = getelementptr inbounds nuw %struct.AVComplexFloat, ptr %166, i32 0, i32 1
  %168 = load float, ptr %167, align 4, !tbaa !34
  %169 = fsub nsz float %160, %168
  %170 = fmul nsz float %154, %169
  %171 = getelementptr inbounds [3 x %struct.AVComplexFloat], ptr %15, i64 0, i64 0
  %172 = getelementptr inbounds nuw %struct.AVComplexFloat, ptr %171, i32 0, i32 1
  store float %170, ptr %172, align 4, !tbaa !34
  %173 = load ptr, ptr %11, align 8, !tbaa !39
  %174 = getelementptr inbounds float, ptr %173, i64 6
  %175 = load float, ptr %174, align 4, !tbaa !36
  %176 = load ptr, ptr %14, align 8, !tbaa !60
  %177 = load i32, ptr %16, align 4, !tbaa !4
  %178 = sext i32 %177 to i64
  %179 = getelementptr inbounds %struct.AVComplexFloat, ptr %176, i64 %178
  %180 = getelementptr inbounds nuw %struct.AVComplexFloat, ptr %179, i32 0, i32 1
  %181 = load float, ptr %180, align 4, !tbaa !34
  %182 = load ptr, ptr %14, align 8, !tbaa !60
  %183 = load i32, ptr %9, align 4, !tbaa !4
  %184 = load i32, ptr %16, align 4, !tbaa !4
  %185 = sub nsw i32 %183, %184
  %186 = sext i32 %185 to i64
  %187 = getelementptr inbounds %struct.AVComplexFloat, ptr %182, i64 %186
  %188 = getelementptr inbounds nuw %struct.AVComplexFloat, ptr %187, i32 0, i32 1
  %189 = load float, ptr %188, align 4, !tbaa !34
  %190 = fadd nsz float %181, %189
  %191 = fmul nsz float %175, %190
  %192 = getelementptr inbounds [3 x %struct.AVComplexFloat], ptr %15, i64 0, i64 1
  %193 = getelementptr inbounds nuw %struct.AVComplexFloat, ptr %192, i32 0, i32 0
  store float %191, ptr %193, align 8, !tbaa !32
  %194 = load ptr, ptr %11, align 8, !tbaa !39
  %195 = getelementptr inbounds float, ptr %194, i64 7
  %196 = load float, ptr %195, align 4, !tbaa !36
  %197 = load ptr, ptr %14, align 8, !tbaa !60
  %198 = load i32, ptr %16, align 4, !tbaa !4
  %199 = sext i32 %198 to i64
  %200 = getelementptr inbounds %struct.AVComplexFloat, ptr %197, i64 %199
  %201 = getelementptr inbounds nuw %struct.AVComplexFloat, ptr %200, i32 0, i32 0
  %202 = load float, ptr %201, align 4, !tbaa !32
  %203 = load ptr, ptr %14, align 8, !tbaa !60
  %204 = load i32, ptr %9, align 4, !tbaa !4
  %205 = load i32, ptr %16, align 4, !tbaa !4
  %206 = sub nsw i32 %204, %205
  %207 = sext i32 %206 to i64
  %208 = getelementptr inbounds %struct.AVComplexFloat, ptr %203, i64 %207
  %209 = getelementptr inbounds nuw %struct.AVComplexFloat, ptr %208, i32 0, i32 0
  %210 = load float, ptr %209, align 4, !tbaa !32
  %211 = fsub nsz float %202, %210
  %212 = fmul nsz float %196, %211
  %213 = getelementptr inbounds [3 x %struct.AVComplexFloat], ptr %15, i64 0, i64 1
  %214 = getelementptr inbounds nuw %struct.AVComplexFloat, ptr %213, i32 0, i32 1
  store float %212, ptr %214, align 4, !tbaa !34
  br label %215

215:                                              ; preds = %130
  %216 = getelementptr inbounds [3 x %struct.AVComplexFloat], ptr %15, i64 0, i64 1
  %217 = getelementptr inbounds nuw %struct.AVComplexFloat, ptr %216, i32 0, i32 0
  %218 = load float, ptr %217, align 8, !tbaa !32
  %219 = load ptr, ptr %12, align 8, !tbaa !39
  %220 = load i32, ptr %16, align 4, !tbaa !4
  %221 = sext i32 %220 to i64
  %222 = getelementptr inbounds float, ptr %219, i64 %221
  %223 = load float, ptr %222, align 4, !tbaa !36
  %224 = getelementptr inbounds [3 x %struct.AVComplexFloat], ptr %15, i64 0, i64 1
  %225 = getelementptr inbounds nuw %struct.AVComplexFloat, ptr %224, i32 0, i32 1
  %226 = load float, ptr %225, align 4, !tbaa !34
  %227 = load ptr, ptr %13, align 8, !tbaa !39
  %228 = load i32, ptr %16, align 4, !tbaa !4
  %229 = sext i32 %228 to i64
  %230 = getelementptr inbounds float, ptr %227, i64 %229
  %231 = load float, ptr %230, align 4, !tbaa !36
  %232 = fmul nsz float %226, %231
  %233 = fneg nsz float %232
  %234 = call nsz float @llvm.fmuladd.f32(float %218, float %223, float %233)
  %235 = getelementptr inbounds [3 x %struct.AVComplexFloat], ptr %15, i64 0, i64 2
  %236 = getelementptr inbounds nuw %struct.AVComplexFloat, ptr %235, i32 0, i32 0
  store float %234, ptr %236, align 16, !tbaa !32
  %237 = getelementptr inbounds [3 x %struct.AVComplexFloat], ptr %15, i64 0, i64 1
  %238 = getelementptr inbounds nuw %struct.AVComplexFloat, ptr %237, i32 0, i32 0
  %239 = load float, ptr %238, align 8, !tbaa !32
  %240 = load ptr, ptr %13, align 8, !tbaa !39
  %241 = load i32, ptr %16, align 4, !tbaa !4
  %242 = sext i32 %241 to i64
  %243 = getelementptr inbounds float, ptr %240, i64 %242
  %244 = load float, ptr %243, align 4, !tbaa !36
  %245 = getelementptr inbounds [3 x %struct.AVComplexFloat], ptr %15, i64 0, i64 1
  %246 = getelementptr inbounds nuw %struct.AVComplexFloat, ptr %245, i32 0, i32 1
  %247 = load float, ptr %246, align 4, !tbaa !34
  %248 = load ptr, ptr %12, align 8, !tbaa !39
  %249 = load i32, ptr %16, align 4, !tbaa !4
  %250 = sext i32 %249 to i64
  %251 = getelementptr inbounds float, ptr %248, i64 %250
  %252 = load float, ptr %251, align 4, !tbaa !36
  %253 = fmul nsz float %247, %252
  %254 = call nsz float @llvm.fmuladd.f32(float %239, float %244, float %253)
  %255 = getelementptr inbounds [3 x %struct.AVComplexFloat], ptr %15, i64 0, i64 2
  %256 = getelementptr inbounds nuw %struct.AVComplexFloat, ptr %255, i32 0, i32 1
  store float %254, ptr %256, align 4, !tbaa !34
  br label %257

257:                                              ; preds = %215
  br label %258

258:                                              ; preds = %257
  %259 = getelementptr inbounds [3 x %struct.AVComplexFloat], ptr %15, i64 0, i64 0
  %260 = getelementptr inbounds nuw %struct.AVComplexFloat, ptr %259, i32 0, i32 0
  %261 = load float, ptr %260, align 16, !tbaa !32
  %262 = getelementptr inbounds [3 x %struct.AVComplexFloat], ptr %15, i64 0, i64 2
  %263 = getelementptr inbounds nuw %struct.AVComplexFloat, ptr %262, i32 0, i32 0
  %264 = load float, ptr %263, align 16, !tbaa !32
  %265 = fadd nsz float %261, %264
  %266 = load ptr, ptr %14, align 8, !tbaa !60
  %267 = load i32, ptr %16, align 4, !tbaa !4
  %268 = sext i32 %267 to i64
  %269 = getelementptr inbounds %struct.AVComplexFloat, ptr %266, i64 %268
  %270 = getelementptr inbounds nuw %struct.AVComplexFloat, ptr %269, i32 0, i32 0
  store float %265, ptr %270, align 4, !tbaa !32
  %271 = getelementptr inbounds [3 x %struct.AVComplexFloat], ptr %15, i64 0, i64 2
  %272 = getelementptr inbounds nuw %struct.AVComplexFloat, ptr %271, i32 0, i32 1
  %273 = load float, ptr %272, align 4, !tbaa !34
  %274 = getelementptr inbounds [3 x %struct.AVComplexFloat], ptr %15, i64 0, i64 0
  %275 = getelementptr inbounds nuw %struct.AVComplexFloat, ptr %274, i32 0, i32 1
  %276 = load float, ptr %275, align 4, !tbaa !34
  %277 = fsub nsz float %273, %276
  %278 = load ptr, ptr %14, align 8, !tbaa !60
  %279 = load i32, ptr %16, align 4, !tbaa !4
  %280 = sext i32 %279 to i64
  %281 = getelementptr inbounds %struct.AVComplexFloat, ptr %278, i64 %280
  %282 = getelementptr inbounds nuw %struct.AVComplexFloat, ptr %281, i32 0, i32 1
  store float %277, ptr %282, align 4, !tbaa !34
  %283 = getelementptr inbounds [3 x %struct.AVComplexFloat], ptr %15, i64 0, i64 0
  %284 = getelementptr inbounds nuw %struct.AVComplexFloat, ptr %283, i32 0, i32 0
  %285 = load float, ptr %284, align 16, !tbaa !32
  %286 = getelementptr inbounds [3 x %struct.AVComplexFloat], ptr %15, i64 0, i64 2
  %287 = getelementptr inbounds nuw %struct.AVComplexFloat, ptr %286, i32 0, i32 0
  %288 = load float, ptr %287, align 16, !tbaa !32
  %289 = fsub nsz float %285, %288
  %290 = load ptr, ptr %14, align 8, !tbaa !60
  %291 = load i32, ptr %9, align 4, !tbaa !4
  %292 = load i32, ptr %16, align 4, !tbaa !4
  %293 = sub nsw i32 %291, %292
  %294 = sext i32 %293 to i64
  %295 = getelementptr inbounds %struct.AVComplexFloat, ptr %290, i64 %294
  %296 = getelementptr inbounds nuw %struct.AVComplexFloat, ptr %295, i32 0, i32 0
  store float %289, ptr %296, align 4, !tbaa !32
  %297 = getelementptr inbounds [3 x %struct.AVComplexFloat], ptr %15, i64 0, i64 2
  %298 = getelementptr inbounds nuw %struct.AVComplexFloat, ptr %297, i32 0, i32 1
  %299 = load float, ptr %298, align 4, !tbaa !34
  %300 = getelementptr inbounds [3 x %struct.AVComplexFloat], ptr %15, i64 0, i64 0
  %301 = getelementptr inbounds nuw %struct.AVComplexFloat, ptr %300, i32 0, i32 1
  %302 = load float, ptr %301, align 4, !tbaa !34
  %303 = fadd nsz float %299, %302
  %304 = load ptr, ptr %14, align 8, !tbaa !60
  %305 = load i32, ptr %9, align 4, !tbaa !4
  %306 = load i32, ptr %16, align 4, !tbaa !4
  %307 = sub nsw i32 %305, %306
  %308 = sext i32 %307 to i64
  %309 = getelementptr inbounds %struct.AVComplexFloat, ptr %304, i64 %308
  %310 = getelementptr inbounds nuw %struct.AVComplexFloat, ptr %309, i32 0, i32 1
  store float %303, ptr %310, align 4, !tbaa !34
  br label %311

311:                                              ; preds = %258
  %312 = load i32, ptr %16, align 4, !tbaa !4
  %313 = add nsw i32 %312, 1
  store i32 %313, ptr %16, align 4, !tbaa !4
  br label %125, !llvm.loop !148

314:                                              ; preds = %129
  %315 = load ptr, ptr %14, align 8, !tbaa !60
  %316 = getelementptr inbounds %struct.AVComplexFloat, ptr %315, i64 0
  %317 = getelementptr inbounds nuw %struct.AVComplexFloat, ptr %316, i32 0, i32 1
  %318 = load float, ptr %317, align 4, !tbaa !34
  %319 = load ptr, ptr %14, align 8, !tbaa !60
  %320 = load i32, ptr %9, align 4, !tbaa !4
  %321 = sext i32 %320 to i64
  %322 = getelementptr inbounds %struct.AVComplexFloat, ptr %319, i64 %321
  %323 = getelementptr inbounds nuw %struct.AVComplexFloat, ptr %322, i32 0, i32 0
  store float %318, ptr %323, align 4, !tbaa !32
  %324 = load ptr, ptr %14, align 8, !tbaa !60
  %325 = load i32, ptr %9, align 4, !tbaa !4
  %326 = sext i32 %325 to i64
  %327 = getelementptr inbounds %struct.AVComplexFloat, ptr %324, i64 %326
  %328 = getelementptr inbounds nuw %struct.AVComplexFloat, ptr %327, i32 0, i32 1
  store float 0.000000e+00, ptr %328, align 4, !tbaa !34
  %329 = load ptr, ptr %14, align 8, !tbaa !60
  %330 = getelementptr inbounds %struct.AVComplexFloat, ptr %329, i64 0
  %331 = getelementptr inbounds nuw %struct.AVComplexFloat, ptr %330, i32 0, i32 1
  store float 0.000000e+00, ptr %331, align 4, !tbaa !34
  call void @llvm.lifetime.end.p0(i64 24, ptr %15) #10
  call void @llvm.lifetime.end.p0(i64 8, ptr %14) #10
  call void @llvm.lifetime.end.p0(i64 8, ptr %13) #10
  call void @llvm.lifetime.end.p0(i64 8, ptr %12) #10
  call void @llvm.lifetime.end.p0(i64 8, ptr %11) #10
  call void @llvm.lifetime.end.p0(i64 4, ptr %10) #10
  call void @llvm.lifetime.end.p0(i64 4, ptr %9) #10
  ret void
}