; Function Attrs: nounwind uwtable
define internal void @ff_tx_rdft_r2c_float_c(ptr noundef readonly captures(none) %0, ptr noundef %1, ptr noundef %2, i64 %3) #3 {
  %5 = load i32, ptr %0, align 8, !tbaa !16
  %6 = ashr i32 %5, 1
  %7 = ashr i32 %5, 2
  %8 = getelementptr inbounds nuw i8, ptr %0, i64 16
  %9 = load ptr, ptr %8, align 8, !tbaa !26
  %10 = getelementptr inbounds nuw i8, ptr %9, i64 32
  %11 = sext i32 %7 to i64
  %12 = getelementptr inbounds float, ptr %10, i64 %11
  %13 = getelementptr inbounds nuw i8, ptr %0, i64 40
  %14 = load ptr, ptr %13, align 8, !tbaa !4
  %15 = getelementptr inbounds nuw i8, ptr %0, i64 32
  %16 = load ptr, ptr %15, align 8, !tbaa !56
  tail call void %14(ptr noundef %16, ptr noundef %1, ptr noundef %2, i64 noundef 8) #16
  %17 = load float, ptr %1, align 4, !tbaa !49
  %18 = getelementptr inbounds nuw i8, ptr %1, i64 4
  %19 = load float, ptr %18, align 4, !tbaa !51
  %20 = fadd nsz float %17, %19
  store float %20, ptr %1, align 4, !tbaa !49
  %21 = fsub nsz float %17, %19
  store float %21, ptr %18, align 4, !tbaa !51
  %22 = load float, ptr %9, align 4, !tbaa !27
  %23 = fmul nsz float %20, %22
  store float %23, ptr %1, align 4, !tbaa !49
  %24 = getelementptr inbounds nuw i8, ptr %9, i64 4
  %25 = load float, ptr %24, align 4, !tbaa !27
  %26 = fmul nsz float %21, %25
  store float %26, ptr %18, align 4, !tbaa !51
  %27 = getelementptr inbounds nuw i8, ptr %9, i64 8
  %28 = load float, ptr %27, align 4, !tbaa !27
  %29 = getelementptr inbounds %struct.AVComplexFloat, ptr %1, i64 %11
  %30 = load float, ptr %29, align 4, !tbaa !49
  %31 = fmul nsz float %28, %30
  store float %31, ptr %29, align 4, !tbaa !49
  %32 = getelementptr inbounds nuw i8, ptr %9, i64 12
  %33 = load float, ptr %32, align 4, !tbaa !27
  %34 = getelementptr inbounds nuw i8, ptr %29, i64 4
  %35 = load float, ptr %34, align 4, !tbaa !51
  %36 = fmul nsz float %33, %35
  store float %36, ptr %34, align 4, !tbaa !51
  %37 = icmp sgt i32 %7, 1
  br i1 %37, label %.lr.ph, label %.._crit_edge_crit_edge

.._crit_edge_crit_edge:                           ; preds = %4
  %.pre = sext i32 %6 to i64
  br label %._crit_edge

.lr.ph:                                           ; preds = %4
  %38 = getelementptr inbounds nuw i8, ptr %9, i64 16
  %39 = getelementptr inbounds nuw i8, ptr %9, i64 20
  %40 = getelementptr inbounds nuw i8, ptr %9, i64 24
  %41 = getelementptr inbounds nuw i8, ptr %9, i64 28
  %42 = sext i32 %6 to i64
  %wide.trip.count = zext nneg i32 %7 to i64
  br label %46

._crit_edge:                                      ; preds = %46, %.._crit_edge_crit_edge
  %.pre-phi = phi i64 [ %.pre, %.._crit_edge_crit_edge ], [ %42, %46 ]
  %43 = load float, ptr %18, align 4, !tbaa !51
  %44 = getelementptr inbounds %struct.AVComplexFloat, ptr %1, i64 %.pre-phi
  store float %43, ptr %44, align 4, !tbaa !49
  %45 = getelementptr inbounds nuw i8, ptr %44, i64 4
  store float 0.000000e+00, ptr %45, align 4, !tbaa !51
  store float 0.000000e+00, ptr %18, align 4, !tbaa !51
  ret void

46:                                               ; preds = %.lr.ph, %46
  %indvars.iv = phi i64 [ 1, %.lr.ph ], [ %indvars.iv.next, %46 ]
  %47 = load float, ptr %38, align 4, !tbaa !27
  %48 = getelementptr inbounds nuw %struct.AVComplexFloat, ptr %1, i64 %indvars.iv
  %49 = load float, ptr %48, align 4, !tbaa !49
  %50 = sub nsw i64 %42, %indvars.iv
  %51 = getelementptr inbounds %struct.AVComplexFloat, ptr %1, i64 %50
  %52 = load float, ptr %51, align 4, !tbaa !49
  %53 = fadd nsz float %49, %52
  %54 = fmul nsz float %47, %53
  %55 = load float, ptr %39, align 4, !tbaa !27
  %56 = getelementptr inbounds nuw i8, ptr %48, i64 4
  %57 = load float, ptr %56, align 4, !tbaa !51
  %58 = getelementptr inbounds nuw i8, ptr %51, i64 4
  %59 = load float, ptr %58, align 4, !tbaa !51
  %60 = fsub nsz float %57, %59
  %61 = fmul nsz float %55, %60
  %62 = load float, ptr %40, align 4, !tbaa !27
  %63 = fadd nsz float %57, %59
  %64 = fmul nsz float %62, %63
  %65 = load float, ptr %41, align 4, !tbaa !27
  %66 = fsub nsz float %49, %52
  %67 = fmul nsz float %66, %65
  %68 = getelementptr inbounds nuw float, ptr %10, i64 %indvars.iv
  %69 = load float, ptr %68, align 4, !tbaa !27
  %70 = getelementptr inbounds nuw float, ptr %12, i64 %indvars.iv
  %71 = load float, ptr %70, align 4, !tbaa !27
  %72 = fneg nsz float %71
  %73 = fmul nsz float %67, %72
  %74 = tail call nsz float @llvm.fmuladd.f32(float %64, float %69, float %73)
  %75 = fmul nsz float %67, %69
  %76 = tail call nsz float @llvm.fmuladd.f32(float %64, float %71, float %75)
  %77 = fadd nsz float %54, %74
  store float %77, ptr %48, align 4, !tbaa !49
  %78 = fsub nsz float %76, %61
  store float %78, ptr %56, align 4, !tbaa !51
  %79 = fsub nsz float %54, %74
  store float %79, ptr %51, align 4, !tbaa !49
  %80 = fadd nsz float %61, %76
  store float %80, ptr %58, align 4, !tbaa !51
  %indvars.iv.next = add nuw nsw i64 %indvars.iv, 1
  %exitcond.not = icmp eq i64 %indvars.iv.next, %wide.trip.count
  br i1 %exitcond.not, label %._crit_edge, label %46, !llvm.loop !137
}